target datalayout = "e-m:e-p270:32:32-p271:32:32-p272:64:64-i64:64-i128:128-f80:128-n8:16:32:64-S128"
target triple = "x86_64-pc-linux-gnu"

%class.QDomElement = type { %class.QDomNode }
%class.QDomNode = type { ptr }
%class.QString = type { ptr }
%class.RichDynamicFloat = type { %class.RichParameter, float, float }
%class.RichParameter = type { ptr, %class.QString, ptr, %class.QString, %class.QString, i8, i8, %class.QString }

@.str.4 = private unnamed_addr constant [4 x i8] c"min\00", align 1
@.str.5 = private unnamed_addr constant [4 x i8] c"max\00", align 1

; Function Attrs: mustprogress nounwind uwtable
define linkonce_odr void @_ZN11QDomElementD2Ev(ptr noundef nonnull align 8 dereferenceable(8) %0) unnamed_addr #0 comdat align 2 {
  %2 = alloca ptr, align 8
  store ptr %0, ptr %2, align 8
  %3 = load ptr, ptr %2, align 8
  call void @_ZN8QDomNodeD2Ev(ptr noundef nonnull align 8 dereferenceable(8) %3) #5
  ret void
}

; Function Attrs: mustprogress uwtable
define linkonce_odr void @_ZN7QStringC2EPKc(ptr noundef nonnull align 8 dereferenceable(8) %0, ptr noundef %1) unnamed_addr #1 comdat align 2 {
  %3 = alloca ptr, align 8
  %4 = alloca ptr, align 8
  store ptr %0, ptr %3, align 8
  store ptr %1, ptr %4, align 8
  %5 = load ptr, ptr %3, align 8
  %6 = getelementptr inbounds %class.QString, ptr %5, i32 0, i32 0
  %7 = load ptr, ptr %4, align 8
  %8 = load ptr, ptr %4, align 8
  %9 = icmp ne ptr %8, null
  br i1 %9, label %10, label %14

10:                                               ; preds = %2
  %11 = load ptr, ptr %4, align 8
  %12 = call i64 @strlen(ptr noundef %11) #11
  %13 = trunc i64 %12 to i32
  br label %15

14:                                               ; preds = %2
  br label %15

15:                                               ; preds = %14, %10
  %16 = phi i32 [ %13, %10 ], [ -1, %14 ]
  %17 = call noundef ptr @_ZN7QString16fromAscii_helperEPKci(ptr noundef %7, i32 noundef %16)
  store ptr %17, ptr %6, align 8
  ret void
}

; Function Attrs: mustprogress uwtable
define void @_ZNK16RichDynamicFloat17fillToXMLDocumentER12QDomDocumentb(ptr dead_on_unwind noalias writable sret(%class.QDomElement) align 8 %0, ptr noundef nonnull align 8 dereferenceable(64) %1, ptr noundef nonnull align 8 dereferenceable(8) %2, i1 noundef zeroext %3) unnamed_addr #1 align 2 personality ptr @__gxx_personality_v0 {
  %5 = alloca ptr, align 8
  %6 = alloca ptr, align 8
  %7 = alloca ptr, align 8
  %8 = alloca i8, align 1
  %9 = alloca i1, align 1
  %10 = alloca %class.QString, align 8
  %11 = alloca ptr, align 8
  %12 = alloca i32, align 4
  %13 = alloca %class.QString, align 8
  %14 = alloca %class.QString, align 8
  %15 = alloca %class.QString, align 8
  store ptr %0, ptr %5, align 8
  store ptr %1, ptr %6, align 8
  store ptr %2, ptr %7, align 8
  %16 = zext i1 %3 to i8
  store i8 %16, ptr %8, align 1
  %17 = load ptr, ptr %6, align 8
  store i1 false, ptr %9, align 1
  %18 = load ptr, ptr %7, align 8
  %19 = load i8, ptr %8, align 1
  %20 = trunc i8 %19 to i1
  call void @_ZNK13RichParameter17fillToXMLDocumentER12QDomDocumentb(ptr dead_on_unwind writable sret(%class.QDomElement) align 8 %0, ptr noundef nonnull align 8 dereferenceable(56) %17, ptr noundef nonnull align 8 dereferenceable(8) %18, i1 noundef zeroext %20)
  invoke void @_ZN7QStringC2EPKc(ptr noundef nonnull align 8 dereferenceable(8) %10, ptr noundef @.str.4)
          to label %21 unwind label %34

21:                                               ; preds = %4
  %22 = getelementptr inbounds %class.RichDynamicFloat, ptr %17, i32 0, i32 1
  %23 = load float, ptr %22, align 8
  %24 = fpext float %23 to double
  invoke void @_ZN7QString6numberEdci(ptr dead_on_unwind writable sret(%class.QString) align 8 %13, double noundef %24, i8 noundef signext 103, i32 noundef 6)
          to label %25 unwind label %38

25:                                               ; preds = %21
  invoke void @_ZN11QDomElement12setAttributeERK7QStringS2_(ptr noundef nonnull align 8 dereferenceable(8) %0, ptr noundef nonnull align 8 dereferenceable(8) %10, ptr noundef nonnull align 8 dereferenceable(8) %13)
          to label %26 unwind label %42

26:                                               ; preds = %25
  call void @_ZN7QStringD2Ev(ptr noundef nonnull align 8 dereferenceable(8) %13) #5
  call void @_ZN7QStringD2Ev(ptr noundef nonnull align 8 dereferenceable(8) %10) #5
  invoke void @_ZN7QStringC2EPKc(ptr noundef nonnull align 8 dereferenceable(8) %14, ptr noundef @.str.5)
          to label %27 unwind label %34

27:                                               ; preds = %26
  %28 = getelementptr inbounds %class.RichDynamicFloat, ptr %17, i32 0, i32 2
  %29 = load float, ptr %28, align 4
  %30 = fpext float %29 to double
  invoke void @_ZN7QString6numberEdci(ptr dead_on_unwind writable sret(%class.QString) align 8 %15, double noundef %30, i8 noundef signext 103, i32 noundef 6)
          to label %31 unwind label %47

31:                                               ; preds = %27
  invoke void @_ZN11QDomElement12setAttributeERK7QStringS2_(ptr noundef nonnull align 8 dereferenceable(8) %0, ptr noundef nonnull align 8 dereferenceable(8) %14, ptr noundef nonnull align 8 dereferenceable(8) %15)
          to label %32 unwind label %51

32:                                               ; preds = %31
  call void @_ZN7QStringD2Ev(ptr noundef nonnull align 8 dereferenceable(8) %15) #5
  call void @_ZN7QStringD2Ev(ptr noundef nonnull align 8 dereferenceable(8) %14) #5
  store i1 true, ptr %9, align 1
  %33 = load i1, ptr %9, align 1
  br i1 %33, label %57, label %56

34:                                               ; preds = %26, %4
  %35 = landingpad { ptr, i32 }
          cleanup
  %36 = extractvalue { ptr, i32 } %35, 0
  store ptr %36, ptr %11, align 8
  %37 = extractvalue { ptr, i32 } %35, 1
  store i32 %37, ptr %12, align 4
  br label %58

38:                                               ; preds = %21
  %39 = landingpad { ptr, i32 }
          cleanup
  %40 = extractvalue { ptr, i32 } %39, 0
  store ptr %40, ptr %11, align 8
  %41 = extractvalue { ptr, i32 } %39, 1
  store i32 %41, ptr %12, align 4
  br label %46

42:                                               ; preds = %25
  %43 = landingpad { ptr, i32 }
          cleanup
  %44 = extractvalue { ptr, i32 } %43, 0
  store ptr %44, ptr %11, align 8
  %45 = extractvalue { ptr, i32 } %43, 1
  store i32 %45, ptr %12, align 4
  call void @_ZN7QStringD2Ev(ptr noundef nonnull align 8 dereferenceable(8) %13) #5
  br label %46

46:                                               ; preds = %42, %38
  call void @_ZN7QStringD2Ev(ptr noundef nonnull align 8 dereferenceable(8) %10) #5
  br label %58

47:                                               ; preds = %27
  %48 = landingpad { ptr, i32 }
          cleanup
  %49 = extractvalue { ptr, i32 } %48, 0
  store ptr %49, ptr %11, align 8
  %50 = extractvalue { ptr, i32 } %48, 1
  store i32 %50, ptr %12, align 4
  br label %55

51:                                               ; preds = %31
  %52 = landingpad { ptr, i32 }
          cleanup
  %53 = extractvalue { ptr, i32 } %52, 0
  store ptr %53, ptr %11, align 8
  %54 = extractvalue { ptr, i32 } %52, 1
  store i32 %54, ptr %12, align 4
  call void @_ZN7QStringD2Ev(ptr noundef nonnull align 8 dereferenceable(8) %15) #5
  br label %55

55:                                               ; preds = %51, %47
  call void @_ZN7QStringD2Ev(ptr noundef nonnull align 8 dereferenceable(8) %14) #5
  br label %58

56:                                               ; preds = %32
  call void @_ZN11QDomElementD2Ev(ptr noundef nonnull align 8 dereferenceable(8) %0) #5
  br label %57

57:                                               ; preds = %56, %32
  ret void

58:                                               ; preds = %55, %46, %34
  call void @_ZN11QDomElementD2Ev(ptr noundef nonnull align 8 dereferenceable(8) %0) #5
  br label %59

59:                                               ; preds = %58
  %60 = load ptr, ptr %11, align 8
  %61 = load i32, ptr %12, align 4
  %62 = insertvalue { ptr, i32 } poison, ptr %60, 0
  %63 = insertvalue { ptr, i32 } %62, i32 %61, 1
  resume { ptr, i32 } %63
}