; Function Attrs: mustprogress uwtable
define void @_ZNK16RichDynamicFloat17fillToXMLDocumentER12QDomDocumentb(ptr dead_on_unwind noalias writable sret(%class.QDomElement) align 8 %0, ptr noundef nonnull align 8 dereferenceable(64) %1, ptr noundef nonnull align 8 dereferenceable(8) %2, i1 noundef zeroext %3) unnamed_addr #1 align 2 personality ptr @__gxx_personality_v0 {
  %5 = alloca %class.QString, align 8
  %6 = alloca %class.QString, align 8
  %7 = alloca %class.QString, align 8
  %8 = alloca %class.QString, align 8
  tail call void @_ZNK13RichParameter17fillToXMLDocumentER12QDomDocumentb(ptr dead_on_unwind writable sret(%class.QDomElement) align 8 %0, ptr noundef nonnull align 8 dereferenceable(56) %1, ptr noundef nonnull align 8 dereferenceable(8) %2, i1 noundef zeroext %3)
  %9 = invoke noundef ptr @_ZN7QString16fromAscii_helperEPKci(ptr noundef nonnull @.str.4, i32 noundef 3)
          to label %10 unwind label %39

10:                                               ; preds = %4
  store ptr %9, ptr %5, align 8
  %11 = getelementptr inbounds i8, ptr %1, i64 56
  %12 = load float, ptr %11, align 8
  %13 = fpext float %12 to double
  invoke void @_ZN7QString6numberEdci(ptr dead_on_unwind nonnull writable sret(%class.QString) align 8 %6, double noundef %13, i8 noundef signext 103, i32 noundef 6)
          to label %14 unwind label %41

14:                                               ; preds = %10
  invoke void @_ZN11QDomElement12setAttributeERK7QStringS2_(ptr noundef nonnull align 8 dereferenceable(8) %0, ptr noundef nonnull align 8 dereferenceable(8) %5, ptr noundef nonnull align 8 dereferenceable(8) %6)
          to label %15 unwind label %43

15:                                               ; preds = %14
  %16 = load ptr, ptr %6, align 8
  %17 = load atomic i32, ptr %16 monotonic, align 4
  switch i32 %17, label %_ZN9QtPrivate8RefCount5derefEv.exit.i [
    i32 0, label %_ZN9QtPrivate8RefCount5derefEv.exit.thread2.i
    i32 -1, label %_ZN7QStringD2Ev.exit
  ]

_ZN9QtPrivate8RefCount5derefEv.exit.i:            ; preds = %15
  %18 = atomicrmw sub ptr %16, i32 1 seq_cst, align 4
  %.not.i = icmp eq i32 %18, 1
  br i1 %.not.i, label %_ZN9QtPrivate8RefCount5derefEv.exit._ZN9QtPrivate8RefCount5derefEv.exit.thread2_crit_edge.i, label %_ZN7QStringD2Ev.exit

_ZN9QtPrivate8RefCount5derefEv.exit._ZN9QtPrivate8RefCount5derefEv.exit.thread2_crit_edge.i: ; preds = %_ZN9QtPrivate8RefCount5derefEv.exit.i
  %.pre.i = load ptr, ptr %6, align 8
  br label %_ZN9QtPrivate8RefCount5derefEv.exit.thread2.i

_ZN9QtPrivate8RefCount5derefEv.exit.thread2.i:    ; preds = %_ZN9QtPrivate8RefCount5derefEv.exit._ZN9QtPrivate8RefCount5derefEv.exit.thread2_crit_edge.i, %15
  %19 = phi ptr [ %.pre.i, %_ZN9QtPrivate8RefCount5derefEv.exit._ZN9QtPrivate8RefCount5derefEv.exit.thread2_crit_edge.i ], [ %16, %15 ]
  call void @_ZN10QArrayData10deallocateEPS_mm(ptr noundef %19, i64 noundef 2, i64 noundef 8) #9
  br label %_ZN7QStringD2Ev.exit

_ZN7QStringD2Ev.exit:                             ; preds = %15, %_ZN9QtPrivate8RefCount5derefEv.exit.i, %_ZN9QtPrivate8RefCount5derefEv.exit.thread2.i
  %20 = load ptr, ptr %5, align 8
  %21 = load atomic i32, ptr %20 monotonic, align 4
  switch i32 %21, label %_ZN9QtPrivate8RefCount5derefEv.exit.i13 [
    i32 0, label %_ZN9QtPrivate8RefCount5derefEv.exit.thread2.i12
    i32 -1, label %_ZN7QStringD2Ev.exit17
  ]

_ZN9QtPrivate8RefCount5derefEv.exit.i13:          ; preds = %_ZN7QStringD2Ev.exit
  %22 = atomicrmw sub ptr %20, i32 1 seq_cst, align 4
  %.not.i14 = icmp eq i32 %22, 1
  br i1 %.not.i14, label %_ZN9QtPrivate8RefCount5derefEv.exit._ZN9QtPrivate8RefCount5derefEv.exit.thread2_crit_edge.i15, label %_ZN7QStringD2Ev.exit17

_ZN9QtPrivate8RefCount5derefEv.exit._ZN9QtPrivate8RefCount5derefEv.exit.thread2_crit_edge.i15: ; preds = %_ZN9QtPrivate8RefCount5derefEv.exit.i13
  %.pre.i16 = load ptr, ptr %5, align 8
  br label %_ZN9QtPrivate8RefCount5derefEv.exit.thread2.i12

_ZN9QtPrivate8RefCount5derefEv.exit.thread2.i12:  ; preds = %_ZN9QtPrivate8RefCount5derefEv.exit._ZN9QtPrivate8RefCount5derefEv.exit.thread2_crit_edge.i15, %_ZN7QStringD2Ev.exit
  %23 = phi ptr [ %.pre.i16, %_ZN9QtPrivate8RefCount5derefEv.exit._ZN9QtPrivate8RefCount5derefEv.exit.thread2_crit_edge.i15 ], [ %20, %_ZN7QStringD2Ev.exit ]
  call void @_ZN10QArrayData10deallocateEPS_mm(ptr noundef %23, i64 noundef 2, i64 noundef 8) #9
  br label %_ZN7QStringD2Ev.exit17

_ZN7QStringD2Ev.exit17:                           ; preds = %_ZN7QStringD2Ev.exit, %_ZN9QtPrivate8RefCount5derefEv.exit.i13, %_ZN9QtPrivate8RefCount5derefEv.exit.thread2.i12
  %24 = invoke noundef ptr @_ZN7QString16fromAscii_helperEPKci(ptr noundef nonnull @.str.5, i32 noundef 3)
          to label %25 unwind label %39

25:                                               ; preds = %_ZN7QStringD2Ev.exit17
  store ptr %24, ptr %7, align 8
  %26 = getelementptr inbounds i8, ptr %1, i64 60
  %27 = load float, ptr %26, align 4
  %28 = fpext float %27 to double
  invoke void @_ZN7QString6numberEdci(ptr dead_on_unwind nonnull writable sret(%class.QString) align 8 %8, double noundef %28, i8 noundef signext 103, i32 noundef 6)
          to label %29 unwind label %46

29:                                               ; preds = %25
  invoke void @_ZN11QDomElement12setAttributeERK7QStringS2_(ptr noundef nonnull align 8 dereferenceable(8) %0, ptr noundef nonnull align 8 dereferenceable(8) %7, ptr noundef nonnull align 8 dereferenceable(8) %8)
          to label %30 unwind label %48

30:                                               ; preds = %29
  %31 = load ptr, ptr %8, align 8
  %32 = load atomic i32, ptr %31 monotonic, align 4
  switch i32 %32, label %_ZN9QtPrivate8RefCount5derefEv.exit.i20 [
    i32 0, label %_ZN9QtPrivate8RefCount5derefEv.exit.thread2.i19
    i32 -1, label %_ZN7QStringD2Ev.exit24
  ]

_ZN9QtPrivate8RefCount5derefEv.exit.i20:          ; preds = %30
  %33 = atomicrmw sub ptr %31, i32 1 seq_cst, align 4
  %.not.i21 = icmp eq i32 %33, 1
  br i1 %.not.i21, label %_ZN9QtPrivate8RefCount5derefEv.exit._ZN9QtPrivate8RefCount5derefEv.exit.thread2_crit_edge.i22, label %_ZN7QStringD2Ev.exit24

_ZN9QtPrivate8RefCount5derefEv.exit._ZN9QtPrivate8RefCount5derefEv.exit.thread2_crit_edge.i22: ; preds = %_ZN9QtPrivate8RefCount5derefEv.exit.i20
  %.pre.i23 = load ptr, ptr %8, align 8
  br label %_ZN9QtPrivate8RefCount5derefEv.exit.thread2.i19

_ZN9QtPrivate8RefCount5derefEv.exit.thread2.i19:  ; preds = %_ZN9QtPrivate8RefCount5derefEv.exit._ZN9QtPrivate8RefCount5derefEv.exit.thread2_crit_edge.i22, %30
  %34 = phi ptr [ %.pre.i23, %_ZN9QtPrivate8RefCount5derefEv.exit._ZN9QtPrivate8RefCount5derefEv.exit.thread2_crit_edge.i22 ], [ %31, %30 ]
  call void @_ZN10QArrayData10deallocateEPS_mm(ptr noundef %34, i64 noundef 2, i64 noundef 8) #9
  br label %_ZN7QStringD2Ev.exit24

_ZN7QStringD2Ev.exit24:                           ; preds = %30, %_ZN9QtPrivate8RefCount5derefEv.exit.i20, %_ZN9QtPrivate8RefCount5derefEv.exit.thread2.i19
  %35 = load ptr, ptr %7, align 8
  %36 = load atomic i32, ptr %35 monotonic, align 4
  switch i32 %36, label %_ZN9QtPrivate8RefCount5derefEv.exit.i26 [
    i32 0, label %_ZN9QtPrivate8RefCount5derefEv.exit.thread2.i25
    i32 -1, label %_ZN7QStringD2Ev.exit30
  ]

_ZN9QtPrivate8RefCount5derefEv.exit.i26:          ; preds = %_ZN7QStringD2Ev.exit24
  %37 = atomicrmw sub ptr %35, i32 1 seq_cst, align 4
  %.not.i27 = icmp eq i32 %37, 1
  br i1 %.not.i27, label %_ZN9QtPrivate8RefCount5derefEv.exit._ZN9QtPrivate8RefCount5derefEv.exit.thread2_crit_edge.i28, label %_ZN7QStringD2Ev.exit30

_ZN9QtPrivate8RefCount5derefEv.exit._ZN9QtPrivate8RefCount5derefEv.exit.thread2_crit_edge.i28: ; preds = %_ZN9QtPrivate8RefCount5derefEv.exit.i26
  %.pre.i29 = load ptr, ptr %7, align 8
  br label %_ZN9QtPrivate8RefCount5derefEv.exit.thread2.i25

_ZN9QtPrivate8RefCount5derefEv.exit.thread2.i25:  ; preds = %_ZN9QtPrivate8RefCount5derefEv.exit._ZN9QtPrivate8RefCount5derefEv.exit.thread2_crit_edge.i28, %_ZN7QStringD2Ev.exit24
  %38 = phi ptr [ %.pre.i29, %_ZN9QtPrivate8RefCount5derefEv.exit._ZN9QtPrivate8RefCount5derefEv.exit.thread2_crit_edge.i28 ], [ %35, %_ZN7QStringD2Ev.exit24 ]
  call void @_ZN10QArrayData10deallocateEPS_mm(ptr noundef %38, i64 noundef 2, i64 noundef 8) #9
  br label %_ZN7QStringD2Ev.exit30

_ZN7QStringD2Ev.exit30:                           ; preds = %_ZN7QStringD2Ev.exit24, %_ZN9QtPrivate8RefCount5derefEv.exit.i26, %_ZN9QtPrivate8RefCount5derefEv.exit.thread2.i25
  ret void

39:                                               ; preds = %_ZN7QStringD2Ev.exit17, %4
  %40 = landingpad { ptr, i32 }
          cleanup
  br label %51

41:                                               ; preds = %10
  %42 = landingpad { ptr, i32 }
          cleanup
  br label %45

43:                                               ; preds = %14
  %44 = landingpad { ptr, i32 }
          cleanup
  call void @_ZN7QStringD2Ev(ptr noundef nonnull align 8 dereferenceable(8) %6) #9
  br label %45

45:                                               ; preds = %43, %41
  %.pn = phi { ptr, i32 } [ %44, %43 ], [ %42, %41 ]
  call void @_ZN7QStringD2Ev(ptr noundef nonnull align 8 dereferenceable(8) %5) #9
  br label %51

46:                                               ; preds = %25
  %47 = landingpad { ptr, i32 }
          cleanup
  br label %50

48:                                               ; preds = %29
  %49 = landingpad { ptr, i32 }
          cleanup
  call void @_ZN7QStringD2Ev(ptr noundef nonnull align 8 dereferenceable(8) %8) #9
  br label %50

50:                                               ; preds = %48, %46
  %.pn9 = phi { ptr, i32 } [ %49, %48 ], [ %47, %46 ]
  call void @_ZN7QStringD2Ev(ptr noundef nonnull align 8 dereferenceable(8) %7) #9
  br label %51

51:                                               ; preds = %50, %45, %39
  %.pn9.pn = phi { ptr, i32 } [ %.pn9, %50 ], [ %40, %39 ], [ %.pn, %45 ]
  call void @_ZN8QDomNodeD2Ev(ptr noundef nonnull align 8 dereferenceable(8) %0) #9
  resume { ptr, i32 } %.pn9.pn
}